; Function Attrs: mustprogress nofree norecurse nosync nounwind willreturn memory(read, argmem: readwrite, inaccessiblemem: none) uwtable
define hidden noundef zeroext i1 @_ZNK19OpenColorIO_v2_4dev9LogOpData8getValueENS_18LogAffineParameterERA3_d(ptr nocapture noundef nonnull readonly align 8 dereferenceable(252) %this, i32 noundef %val, ptr nocapture noundef nonnull writeonly align 8 dereferenceable(24) %values) local_unnamed_addr #6 align 2 {
entry:
  %conv = zext i32 %val to i64
  %m_redParams = getelementptr inbounds i8, ptr %this, i64 168
  %_M_finish.i = getelementptr inbounds i8, ptr %this, i64 176
  %0 = load ptr, ptr %_M_finish.i, align 8
  %1 = load ptr, ptr %m_redParams, align 8
  %sub.ptr.lhs.cast.i = ptrtoint ptr %0 to i64
  %sub.ptr.rhs.cast.i = ptrtoint ptr %1 to i64
  %sub.ptr.sub.i = sub i64 %sub.ptr.lhs.cast.i, %sub.ptr.rhs.cast.i
  %sub.ptr.div.i = ashr exact i64 %sub.ptr.sub.i, 3
  %cmp.not = icmp ugt i64 %sub.ptr.div.i, %conv
  br i1 %cmp.not, label %if.end, label %return

if.end:                                           ; preds = %entry
  %add.ptr.i = getelementptr inbounds double, ptr %1, i64 %conv
  %2 = load double, ptr %add.ptr.i, align 8
  store double %2, ptr %values, align 8
  %m_greenParams = getelementptr inbounds i8, ptr %this, i64 192
  %3 = load ptr, ptr %m_greenParams, align 8
  %add.ptr.i6 = getelementptr inbounds double, ptr %3, i64 %conv
  %4 = load double, ptr %add.ptr.i6, align 8
  %arrayidx7 = getelementptr inbounds i8, ptr %values, i64 8
  store double %4, ptr %arrayidx7, align 8
  %m_blueParams = getelementptr inbounds i8, ptr %this, i64 216
  %5 = load ptr, ptr %m_blueParams, align 8
  %add.ptr.i7 = getelementptr inbounds double, ptr %5, i64 %conv
  %6 = load double, ptr %add.ptr.i7, align 8
  %arrayidx10 = getelementptr inbounds i8, ptr %values, i64 16
  store double %6, ptr %arrayidx10, align 8
  br label %return

return:                                           ; preds = %entry, %if.end
  ret i1 %cmp.not
}